
main.o:     file format elf64-x86-64


Disassembly of section .text:

0000000000000000 <asm_strlen>:
#include <stdio.h>
#include <string.h>

int asm_strlen(const char *string)
{
   0:	f3 0f 1e fa          	endbr64 
   4:	55                   	push   %rbp
   5:	48 89 e5             	mov    %rsp,%rbp
   8:	48 89 7d e8          	mov    %rdi,-0x18(%rbp)
    int len = 0;
   c:	c7 45 fc 00 00 00 00 	movl   $0x0,-0x4(%rbp)

    __asm__ (
  13:	48 8b 55 e8          	mov    -0x18(%rbp),%rdx
  17:	b9 ff ff ff ff       	mov    $0xffffffff,%ecx
  1c:	48 8d 3a             	lea    (%rdx),%rdi
  1f:	30 c0                	xor    %al,%al
  21:	f2 ae                	repnz scas %es:(%rdi),%al
  23:	f7 d1                	not    %ecx
  25:	ff c9                	dec    %ecx
  27:	89 ca                	mov    %ecx,%edx
  29:	89 55 fc             	mov    %edx,-0x4(%rbp)
        : "=r" (len)
        : "r" (string)
        : "rdi", "ecx", "al"
    );

    return len;
  2c:	8b 45 fc             	mov    -0x4(%rbp),%eax
}
  2f:	5d                   	pop    %rbp
  30:	c3                   	ret    

0000000000000031 <main>:

int main(void)
{
  31:	f3 0f 1e fa          	endbr64 
  35:	55                   	push   %rbp
  36:	48 89 e5             	mov    %rsp,%rbp
  39:	48 83 ec 20          	sub    $0x20,%rsp
  3d:	64 48 8b 04 25 28 00 	mov    %fs:0x28,%rax
  44:	00 00 
  46:	48 89 45 f8          	mov    %rax,-0x8(%rbp)
  4a:	31 c0                	xor    %eax,%eax
    setbuf(stdout, NULL);
  4c:	48 8b 05 00 00 00 00 	mov    0x0(%rip),%rax        # 53 <main+0x22>
  53:	be 00 00 00 00       	mov    $0x0,%esi
  58:	48 89 c7             	mov    %rax,%rdi
  5b:	e8 00 00 00 00       	call   60 <main+0x2f>

    char test_str[] = "Hi, I'm Test String.";
  60:	48 b8 48 69 2c 20 49 	movabs $0x206d2749202c6948,%rax
  67:	27 6d 20 
  6a:	48 ba 54 65 73 74 20 	movabs $0x7274532074736554,%rdx
  71:	53 74 72 
  74:	48 89 45 e0          	mov    %rax,-0x20(%rbp)
  78:	48 89 55 e8          	mov    %rdx,-0x18(%rbp)
  7c:	c7 45 f0 69 6e 67 2e 	movl   $0x2e676e69,-0x10(%rbp)
  83:	c6 45 f4 00          	movb   $0x0,-0xc(%rbp)
    printf("Current test string: '%s'\n", test_str);
  87:	48 8d 45 e0          	lea    -0x20(%rbp),%rax
  8b:	48 89 c6             	mov    %rax,%rsi
  8e:	48 8d 05 00 00 00 00 	lea    0x0(%rip),%rax        # 95 <main+0x64>
  95:	48 89 c7             	mov    %rax,%rdi
  98:	b8 00 00 00 00       	mov    $0x0,%eax
  9d:	e8 00 00 00 00       	call   a2 <main+0x71>
    printf("Actual string length: %zu\n", strlen(test_str));
  a2:	48 8d 45 e0          	lea    -0x20(%rbp),%rax
  a6:	48 89 c7             	mov    %rax,%rdi
  a9:	e8 00 00 00 00       	call   ae <main+0x7d>
  ae:	48 89 c6             	mov    %rax,%rsi
  b1:	48 8d 05 00 00 00 00 	lea    0x0(%rip),%rax        # b8 <main+0x87>
  b8:	48 89 c7             	mov    %rax,%rdi
  bb:	b8 00 00 00 00       	mov    $0x0,%eax
  c0:	e8 00 00 00 00       	call   c5 <main+0x94>
    printf("ASM string length: %d\n", asm_strlen(test_str));
  c5:	48 8d 45 e0          	lea    -0x20(%rbp),%rax
  c9:	48 89 c7             	mov    %rax,%rdi
  cc:	e8 00 00 00 00       	call   d1 <main+0xa0>
  d1:	89 c6                	mov    %eax,%esi
  d3:	48 8d 05 00 00 00 00 	lea    0x0(%rip),%rax        # da <main+0xa9>
  da:	48 89 c7             	mov    %rax,%rdi
  dd:	b8 00 00 00 00       	mov    $0x0,%eax
  e2:	e8 00 00 00 00       	call   e7 <main+0xb6>
  e7:	b8 00 00 00 00       	mov    $0x0,%eax

}
  ec:	48 8b 55 f8          	mov    -0x8(%rbp),%rdx
  f0:	64 48 2b 14 25 28 00 	sub    %fs:0x28,%rdx
  f7:	00 00 
  f9:	74 05                	je     100 <main+0xcf>
  fb:	e8 00 00 00 00       	call   100 <main+0xcf>
 100:	c9                   	leave  
 101:	c3                   	ret    
